; Function Attrs: mustprogress nounwind uwtable
define dso_local noundef range(i64 -230584300921369394, 230584300921369397) i64 @_ZNK4llvm6object15XCOFFObjectFile15getSectionIndexENS0_11DataRefImplE(ptr noundef nonnull align 8 dereferenceable(96) %0, i64 %1) unnamed_addr #0 align 2 {
  %3 = load ptr, ptr %0, align 8
  %4 = getelementptr inbounds i8, ptr %3, i64 64
  %5 = load ptr, ptr %4, align 8
  %6 = tail call noundef zeroext i1 %5(ptr noundef nonnull align 8 dereferenceable(96) %0) #23
  %7 = getelementptr inbounds nuw i8, ptr %0, i64 64
  %8 = load ptr, ptr %7, align 8
  %9 = ptrtoint ptr %8 to i64
  %10 = sub i64 %1, %9
  %. = select i1 %6, i64 72, i64 40
  %11 = sdiv exact i64 %10, %.
  %.0 = add nsw i64 %11, 1
  ret i64 %.0
}